target datalayout = "e-m:e-p270:32:32-p271:32:32-p272:64:64-i64:64-i128:128-f80:128-n8:16:32:64-S128"
target triple = "x86_64-pc-linux-gnu"

%struct.__va_list_tag = type { i32, i32, ptr, ptr }

; Function Attrs: null_pointer_is_valid sspstrong uwtable
define noalias ptr @wmem_strconcat(ptr noundef %0, ptr noundef %1, ...) #0 {
  %3 = alloca ptr, align 8
  %4 = alloca ptr, align 8
  %5 = alloca ptr, align 8
  %6 = alloca i64, align 8
  %7 = alloca [1 x %struct.__va_list_tag], align 16
  %8 = alloca ptr, align 8
  %9 = alloca ptr, align 8
  %10 = alloca ptr, align 8
  %11 = alloca i32, align 4
  store ptr %0, ptr %4, align 8
  store ptr %1, ptr %5, align 8
  call void @llvm.lifetime.start.p0(i64 8, ptr %6) #15
  call void @llvm.lifetime.start.p0(i64 24, ptr %7) #15
  call void @llvm.lifetime.start.p0(i64 8, ptr %8) #15
  call void @llvm.lifetime.start.p0(i64 8, ptr %9) #15
  call void @llvm.lifetime.start.p0(i64 8, ptr %10) #15
  %12 = load ptr, ptr %5, align 8
  %13 = icmp ne ptr %12, null
  br i1 %13, label %15, label %14

14:                                               ; preds = %2
  store ptr null, ptr %3, align 8
  store i32 1, ptr %11, align 4
  br label %77

15:                                               ; preds = %2
  %16 = load ptr, ptr %5, align 8
  %17 = call i64 @strlen(ptr noundef %16) #16
  %18 = add i64 1, %17
  store i64 %18, ptr %6, align 8
  %19 = getelementptr inbounds [1 x %struct.__va_list_tag], ptr %7, i64 0, i64 0
  call void @llvm.va_start.p0(ptr %19)
  br label %20

20:                                               ; preds = %38, %15
  %21 = getelementptr inbounds [1 x %struct.__va_list_tag], ptr %7, i64 0, i64 0
  %22 = getelementptr inbounds nuw %struct.__va_list_tag, ptr %21, i32 0, i32 0
  %23 = load i32, ptr %22, align 16
  %24 = icmp ule i32 %23, 40
  br i1 %24, label %25, label %30

25:                                               ; preds = %20
  %26 = getelementptr inbounds nuw %struct.__va_list_tag, ptr %21, i32 0, i32 3
  %27 = load ptr, ptr %26, align 16
  %28 = getelementptr i8, ptr %27, i32 %23
  %29 = add i32 %23, 8
  store i32 %29, ptr %22, align 16
  br label %34

30:                                               ; preds = %20
  %31 = getelementptr inbounds nuw %struct.__va_list_tag, ptr %21, i32 0, i32 2
  %32 = load ptr, ptr %31, align 8
  %33 = getelementptr i8, ptr %32, i32 8
  store ptr %33, ptr %31, align 8
  br label %34

34:                                               ; preds = %30, %25
  %35 = phi ptr [ %28, %25 ], [ %32, %30 ]
  %36 = load ptr, ptr %35, align 8
  store ptr %36, ptr %8, align 8
  %37 = icmp ne ptr %36, null
  br i1 %37, label %38, label %43

38:                                               ; preds = %34
  %39 = load ptr, ptr %8, align 8
  %40 = call i64 @strlen(ptr noundef %39) #16
  %41 = load i64, ptr %6, align 8
  %42 = add i64 %41, %40
  store i64 %42, ptr %6, align 8
  br label %20, !llvm.loop !6

43:                                               ; preds = %34
  %44 = getelementptr inbounds [1 x %struct.__va_list_tag], ptr %7, i64 0, i64 0
  call void @llvm.va_end.p0(ptr %44)
  %45 = load ptr, ptr %4, align 8
  %46 = load i64, ptr %6, align 8
  %47 = call noalias ptr @wmem_alloc(ptr noundef %45, i64 noundef %46) #17
  store ptr %47, ptr %9, align 8
  store ptr %47, ptr %10, align 8
  %48 = load ptr, ptr %10, align 8
  %49 = load ptr, ptr %5, align 8
  %50 = call ptr @g_stpcpy(ptr noundef %48, ptr noundef %49)
  store ptr %50, ptr %10, align 8
  %51 = getelementptr inbounds [1 x %struct.__va_list_tag], ptr %7, i64 0, i64 0
  call void @llvm.va_start.p0(ptr %51)
  br label %52

52:                                               ; preds = %70, %43
  %53 = getelementptr inbounds [1 x %struct.__va_list_tag], ptr %7, i64 0, i64 0
  %54 = getelementptr inbounds nuw %struct.__va_list_tag, ptr %53, i32 0, i32 0
  %55 = load i32, ptr %54, align 16
  %56 = icmp ule i32 %55, 40
  br i1 %56, label %57, label %62

57:                                               ; preds = %52
  %58 = getelementptr inbounds nuw %struct.__va_list_tag, ptr %53, i32 0, i32 3
  %59 = load ptr, ptr %58, align 16
  %60 = getelementptr i8, ptr %59, i32 %55
  %61 = add i32 %55, 8
  store i32 %61, ptr %54, align 16
  br label %66

62:                                               ; preds = %52
  %63 = getelementptr inbounds nuw %struct.__va_list_tag, ptr %53, i32 0, i32 2
  %64 = load ptr, ptr %63, align 8
  %65 = getelementptr i8, ptr %64, i32 8
  store ptr %65, ptr %63, align 8
  br label %66

66:                                               ; preds = %62, %57
  %67 = phi ptr [ %60, %57 ], [ %64, %62 ]
  %68 = load ptr, ptr %67, align 8
  store ptr %68, ptr %8, align 8
  %69 = icmp ne ptr %68, null
  br i1 %69, label %70, label %74

70:                                               ; preds = %66
  %71 = load ptr, ptr %10, align 8
  %72 = load ptr, ptr %8, align 8
  %73 = call ptr @g_stpcpy(ptr noundef %71, ptr noundef %72)
  store ptr %73, ptr %10, align 8
  br label %52, !llvm.loop !8

74:                                               ; preds = %66
  %75 = getelementptr inbounds [1 x %struct.__va_list_tag], ptr %7, i64 0, i64 0
  call void @llvm.va_end.p0(ptr %75)
  %76 = load ptr, ptr %9, align 8
  store ptr %76, ptr %3, align 8
  store i32 1, ptr %11, align 4
  br label %77

77:                                               ; preds = %74, %14
  call void @llvm.lifetime.end.p0(i64 8, ptr %10) #15
  call void @llvm.lifetime.end.p0(i64 8, ptr %9) #15
  call void @llvm.lifetime.end.p0(i64 8, ptr %8) #15
  call void @llvm.lifetime.end.p0(i64 24, ptr %7) #15
  call void @llvm.lifetime.end.p0(i64 8, ptr %6) #15
  %78 = load ptr, ptr %3, align 8
  ret ptr %78
}