; Function Attrs: null_pointer_is_valid sspstrong uwtable
define noalias noundef ptr @wmem_strconcat(ptr noundef %0, ptr noundef %1, ...) local_unnamed_addr #0 {
  %3 = alloca [1 x %struct.__va_list_tag], align 16
  call void @llvm.lifetime.start.p0(i64 24, ptr nonnull %3) #23
  %.not = icmp eq ptr %1, null
  br i1 %.not, label %48, label %4

4:                                                ; preds = %2
  %5 = tail call i64 @strlen(ptr noundef nonnull dereferenceable(1) %1) #24
  %6 = add i64 %5, 1
  call void @llvm.va_start.p0(ptr nonnull %3)
  %.promoted = load i32, ptr %3, align 16
  %7 = getelementptr inbounds nuw i8, ptr %3, i64 8
  %8 = getelementptr inbounds nuw i8, ptr %3, i64 16
  %9 = load ptr, ptr %8, align 16
  %.promoted20 = load ptr, ptr %7, align 8
  br label %10

10:                                               ; preds = %25, %4
  %11 = phi ptr [ %.promoted20, %4 ], [ %21, %25 ]
  %12 = phi i32 [ %.promoted, %4 ], [ %22, %25 ]
  %.012 = phi i64 [ %6, %4 ], [ %27, %25 ]
  %13 = icmp ult i32 %12, 41
  br i1 %13, label %14, label %18

14:                                               ; preds = %10
  %15 = zext nneg i32 %12 to i64
  %16 = getelementptr i8, ptr %9, i64 %15
  %17 = add nuw nsw i32 %12, 8
  store i32 %17, ptr %3, align 16
  br label %20

18:                                               ; preds = %10
  %19 = getelementptr i8, ptr %11, i64 8
  store ptr %19, ptr %7, align 8
  br label %20

20:                                               ; preds = %18, %14
  %21 = phi ptr [ %11, %14 ], [ %19, %18 ]
  %22 = phi i32 [ %17, %14 ], [ %12, %18 ]
  %23 = phi ptr [ %16, %14 ], [ %11, %18 ]
  %24 = load ptr, ptr %23, align 8
  %.not18 = icmp eq ptr %24, null
  br i1 %.not18, label %28, label %25

25:                                               ; preds = %20
  %26 = call i64 @strlen(ptr noundef nonnull dereferenceable(1) %24) #24
  %27 = add i64 %26, %.012
  br label %10, !llvm.loop !6

28:                                               ; preds = %20
  call void @llvm.va_end.p0(ptr nonnull %3)
  %29 = call noalias ptr @wmem_alloc(ptr noundef %0, i64 noundef %.012) #25
  %30 = call ptr @g_stpcpy(ptr noundef %29, ptr noundef nonnull %1)
  call void @llvm.va_start.p0(ptr nonnull %3)
  br label %31

31:                                               ; preds = %45, %28
  %.0 = phi ptr [ %30, %28 ], [ %46, %45 ]
  %32 = load i32, ptr %3, align 16
  %33 = icmp ult i32 %32, 41
  br i1 %33, label %34, label %39

34:                                               ; preds = %31
  %35 = load ptr, ptr %8, align 16
  %36 = zext nneg i32 %32 to i64
  %37 = getelementptr i8, ptr %35, i64 %36
  %38 = add nuw nsw i32 %32, 8
  store i32 %38, ptr %3, align 16
  br label %42

39:                                               ; preds = %31
  %40 = load ptr, ptr %7, align 8
  %41 = getelementptr i8, ptr %40, i64 8
  store ptr %41, ptr %7, align 8
  br label %42

42:                                               ; preds = %39, %34
  %43 = phi ptr [ %37, %34 ], [ %40, %39 ]
  %44 = load ptr, ptr %43, align 8
  %.not19 = icmp eq ptr %44, null
  br i1 %.not19, label %47, label %45

45:                                               ; preds = %42
  %46 = call ptr @g_stpcpy(ptr noundef %.0, ptr noundef nonnull %44)
  br label %31, !llvm.loop !8

47:                                               ; preds = %42
  call void @llvm.va_end.p0(ptr nonnull %3)
  br label %48

48:                                               ; preds = %2, %47
  %.011 = phi ptr [ %29, %47 ], [ null, %2 ]
  call void @llvm.lifetime.end.p0(i64 24, ptr nonnull %3) #23
  ret ptr %.011
}